; Function Attrs: mustprogress nounwind uwtable
define void @_ZN5boost4json6parserC2ENS0_11storage_ptrERKNS0_13parse_optionsE(ptr noundef nonnull align 8 dereferenceable(280) %0, ptr nocapture noundef %1, ptr nocapture noundef nonnull readonly align 8 dereferenceable(14) %2) unnamed_addr #7 align 2 personality ptr @__gxx_personality_v0 {
  %4 = alloca %"class.boost::json::storage_ptr", align 8
  %5 = alloca %"class.boost::json::storage_ptr", align 8
  call void @llvm.lifetime.start.p0(i64 8, ptr nonnull %4)
  %6 = load i64, ptr %1, align 8, !tbaa !11
  store i64 0, ptr %1, align 8, !tbaa !11
  store i64 %6, ptr %4, align 8, !tbaa !17
  call void @_ZN5boost4json11value_stackC1ENS0_11storage_ptrEPhm(ptr noundef nonnull align 8 dereferenceable(274) %0, ptr noundef nonnull %4, ptr noundef null, i64 noundef 0) #48
  %7 = load i64, ptr %4, align 8, !tbaa !17
  %8 = and i64 %7, 1
  %.not.i.i.i.i = icmp eq i64 %8, 0
  br i1 %.not.i.i.i.i, label %_ZN5boost4json11storage_ptrD2Ev.exit, label %9

9:                                                ; preds = %3
  %10 = and i64 %7, -4
  %11 = inttoptr i64 %10 to ptr
  %12 = getelementptr inbounds nuw i8, ptr %11, i64 8
  %13 = atomicrmw sub ptr %12, i64 1 acq_rel, align 8
  %14 = icmp ne i64 %13, 1
  %15 = icmp eq i64 %10, 0
  %or.cond.i.i.i.i = or i1 %15, %14
  br i1 %or.cond.i.i.i.i, label %_ZN5boost4json11storage_ptrD2Ev.exit, label %16

16:                                               ; preds = %9
  %17 = load ptr, ptr %11, align 8, !tbaa !19
  %18 = getelementptr inbounds i8, ptr %17, i64 8
  %19 = load ptr, ptr %18, align 8
  call void %19(ptr noundef nonnull align 8 dereferenceable(16) %11) #48
  br label %_ZN5boost4json11storage_ptrD2Ev.exit

_ZN5boost4json11storage_ptrD2Ev.exit:             ; preds = %3, %9, %16
  call void @llvm.lifetime.end.p0(i64 8, ptr nonnull %4)
  %20 = getelementptr inbounds nuw i8, ptr %0, i64 88
  %21 = getelementptr inbounds nuw i8, ptr %0, i64 177
  store i8 0, ptr %21, align 1, !tbaa !176
  %22 = getelementptr inbounds nuw i8, ptr %0, i64 178
  call void @llvm.memset.p0.i64(ptr noundef nonnull align 8 dereferenceable(72) %20, i8 0, i64 72, i1 false)
  store i8 1, ptr %22, align 2, !tbaa !177
  %23 = getelementptr inbounds nuw i8, ptr %0, i64 192
  call void @llvm.memset.p0.i64(ptr noundef nonnull align 8 dereferenceable(56) %23, i8 0, i64 34, i1 false)
  %24 = getelementptr inbounds nuw i8, ptr %0, i64 232
  store ptr %23, ptr %24, align 8, !tbaa !153
  %25 = getelementptr inbounds nuw i8, ptr %0, i64 240
  store i64 0, ptr %25, align 8, !tbaa !178
  %26 = getelementptr inbounds nuw i8, ptr %0, i64 248
  call void @llvm.memcpy.p0.p0.i64(ptr noundef nonnull align 8 dereferenceable(16) %26, ptr noundef nonnull align 8 dereferenceable(16) %2, i64 16, i1 false), !tbaa.struct !155
  %27 = getelementptr inbounds nuw i8, ptr %0, i64 264
  %28 = load i64, ptr %26, align 8, !tbaa !160
  store i64 %28, ptr %27, align 8, !tbaa !171
  %29 = getelementptr inbounds nuw i8, ptr %0, i64 272
  store i8 0, ptr %29, align 8, !tbaa !172
  %30 = getelementptr inbounds nuw i8, ptr %0, i64 273
  store i8 0, ptr %30, align 1, !tbaa !173
  store i64 0, ptr %5, align 8, !tbaa !17
  call void @_ZN5boost4json6parser5resetENS0_11storage_ptrE(ptr noundef nonnull align 8 dereferenceable(280) %0, ptr noundef nonnull %5) #48
  ret void
}